(lp0
(dp1
S'bridge'
p2
ccopy_reg
_reconstructor
p3
(c__main__
Label
p4
c__builtin__
tuple
p5
(g2
I98
I98
I255
S'\xe5\xbb\xba\xe7\xad\x91'
p6
I6
I00
I01
I8421376
tp7
tp8
Rp9
sS'bicycle'
p10
g3
(g4
g5
(g10
I35
I35
I3
S'\xe7\xa7\xbb\xe5\x8a\xa8\xe7\x89\xa9\xe4\xbd\x93'
p11
I2
I01
I00
I7801632
tp12
tp13
Rp14
sS'fence'
p15
g3
(g4
g5
(g15
I67
I67
I13
S'\xe8\xb7\xaf\xe9\x97\xb4\xe9\x9a\x9c\xe7\xa2\x8d'
p16
I4
I00
I00
I4210816
tp17
tp18
Rp19
sS'traffic_cone'
p20
g3
(g4
g5
(g20
I65
I65
I11
g16
I4
I00
I00
I64
tp21
tp22
Rp23
sS'wall'
p24
g3
(g4
g5
(g24
I84
I84
I17
S'\xe8\xb7\xaf\xe8\xbe\xb9\xe7\x89\xa9\xe4\xbd\x93'
p25
I5
I00
I00
I12632192
tp26
tp27
Rp28
sS'pole'
p29
g3
(g4
g5
(g29
I82
I82
I15
g25
I5
I00
I00
I12615808
tp30
tp31
Rp32
sS'billboard'
p33
g3
(g4
g5
(g33
I86
I86
I19
g25
I5
I00
I00
I12583104
tp34
tp35
Rp36
sS'rover'
p37
g3
(g4
g5
(g37
I1
I1
I255
S'\xe5\x85\xb6\xe4\xbb\x96'
p38
I0
I00
I01
I0
tp39
tp40
Rp41
sS'person_group'
p42
g3
(g4
g5
(g42
I164
I164
I4
g11
I2
I01
I00
I32960
tp43
tp44
Rp45
sS'traffic_sign'
p46
g3
(g4
g5
(g46
I83
I83
I16
g25
I5
I00
I00
I16448
tp47
tp48
Rp49
sS'bicycle_group'
p50
g3
(g4
g5
(g50
I163
I163
I3
g11
I2
I01
I00
I7801632
tp51
tp52
Rp53
sS'bus_group'
p54
g3
(g4
g5
(g54
I167
I167
I7
g11
I2
I01
I00
I12582976
tp55
tp56
Rp57
sS'sky'
p58
g3
(g4
g5
(g58
I17
I17
I0
S'\xe5\xa4\xa9\xe7\xa9\xba'
p59
I1
I00
I00
I4620980
tp60
tp61
Rp62
sS'motorbicycle'
p63
g3
(g4
g5
(g63
I34
I34
I2
g11
I2
I01
I00
I230
tp64
tp65
Rp66
sS'dustbin'
p67
g3
(g4
g5
(g67
I85
I85
I18
g25
I5
I00
I00
I4194496
tp68
tp69
Rp70
sS'car_groups'
p71
g3
(g4
g5
(g71
I161
I161
I1
g11
I2
I01
I00
I142
tp72
tp73
Rp74
sS'motorbicycle_group'
p75
g3
(g4
g5
(g75
I162
I162
I2
g11
I2
I01
I00
I230
tp76
tp77
Rp78
sS'truck_group'
p79
g3
(g4
g5
(g79
I166
I166
I6
g11
I2
I01
I00
I8388800
tp80
tp81
Rp82
sS'rider'
p83
g3
(g4
g5
(g83
I37
I37
I5
g11
I2
I01
I00
I8405120
tp84
tp85
Rp86
sS'rider_group'
p87
g3
(g4
g5
(g87
I165
I165
I5
g11
I2
I01
I00
I8405120
tp88
tp89
Rp90
sS'vegatation'
p91
g3
(g4
g5
(g91
I113
I113
I21
S'\xe8\x87\xaa\xe7\x84\xb6'
p92
I7
I00
I00
I8421440
tp93
tp94
Rp95
sS'unlabeled'
p96
g3
(g4
g5
(g96
I255
I255
I255
S'\xe6\x9c\xaa\xe6\xa0\x87\xe6\xb3\xa8'
p97
I8
I00
I01
I16777215
tp98
tp99
Rp100
sS'bus'
p101
g3
(g4
g5
(g101
I39
I39
I7
g11
I2
I01
I00
I12582976
tp102
tp103
Rp104
sS'traffic_light'
p105
g3
(g4
g5
(g105
I81
I81
I14
g25
I5
I00
I00
I12599424
tp106
tp107
Rp108
sS'others'
p109
g3
(g4
g5
(g109
I0
I0
I255
g38
I0
I00
I01
I0
tp110
tp111
Rp112
sS'siderwalk'
p113
g3
(g4
g5
(g113
I50
I50
I10
S'\xe5\xb9\xb3\xe9\x9d\xa2'
p114
I3
I00
I00
I12615744
tp115
tp116
Rp117
sS'building'
p118
g3
(g4
g5
(g118
I97
I97
I20
g6
I6
I00
I00
I12583040
tp119
tp120
Rp121
sS'tricycle'
p122
g3
(g4
g5
(g122
I40
I40
I8
g11
I2
I01
I00
I8421568
tp123
tp124
Rp125
sS'road_pile'
p126
g3
(g4
g5
(g126
I66
I66
I12
g16
I4
I00
I00
I192
tp127
tp128
Rp129
sS'car'
p130
g3
(g4
g5
(g130
I33
I33
I1
g11
I2
I01
I00
I142
tp131
tp132
Rp133
sS'tricycle_group'
p134
g3
(g4
g5
(g134
I168
I168
I8
g11
I2
I01
I00
I8421568
tp135
tp136
Rp137
sS'overpass'
p138
g3
(g4
g5
(g138
I100
I100
I255
g6
I6
I00
I01
I4227136
tp139
tp140
Rp141
sS'person'
p142
g3
(g4
g5
(g142
I36
I36
I4
g11
I2
I01
I00
I32960
tp143
tp144
Rp145
sS'truck'
p146
g3
(g4
g5
(g146
I38
I38
I6
g11
I2
I01
I00
I8388800
tp147
tp148
Rp149
sS'tunnel'
p150
g3
(g4
g5
(g150
I99
I99
I255
g6
I6
I00
I01
I8388608
tp151
tp152
Rp153
sS'road'
p154
g3
(g4
g5
(g154
I49
I49
I9
g114
I3
I00
I00
I12615872
tp155
tp156
Rp157
sa(dp158
I0
g112
sI1
g41
sI17
g62
sI33
g133
sI34
g66
sI35
g14
sI36
g145
sI37
g86
sI38
g149
sI39
g104
sI40
g125
sI49
g157
sI50
g117
sI65
g23
sI66
g129
sI67
g19
sI161
g74
sI162
g78
sI81
g108
sI82
g32
sI163
g53
sI84
g28
sI85
g70
sI86
g36
sI164
g45
sI165
g90
sI97
g121
sI98
g9
sI99
g153
sI100
g141
sI166
g82
sI167
g57
sI168
g137
sI83
g49
sI113
g95
sI255
g100
sa(dp159
I0
g62
sI1
g133
sI2
g66
sI3
g14
sI4
g145
sI5
g86
sI6
g149
sI7
g104
sI8
g125
sI9
g157
sI10
g117
sI11
g23
sI12
g129
sI13
g19
sI14
g108
sI15
g32
sI16
g49
sI17
g28
sI18
g70
sI19
g36
sI20
g121
sI21
g95
sI255
g112
sa(dp160
g59
(lp161
g62
asg6
(lp162
g121
ag9
ag153
ag141
asg92
(lp163
g95
asg38
(lp164
g112
ag41
asg25
(lp165
g108
ag32
ag49
ag28
ag70
ag36
asg16
(lp166
g23
ag129
ag19
asg114
(lp167
g157
ag117
asg97
(lp168
g100
asg11
(lp169
g133
ag74
ag66
ag78
ag14
ag53
ag145
ag45
ag86
ag90
ag149
ag82
ag104
ag57
ag125
ag137
asa(dp170
(I192
I0
I64
tp171
(lp172
g57
as(I192
I0
I128
tp173
(lp174
g121
as(I64
I128
I64
tp175
(lp176
g141
as(I64
I0
I192
tp177
(lp178
g70
as(I0
I0
I230
tp179
(lp180
g78
as(I0
I0
I192
tp181
(lp182
g129
as(I192
I128
I64
tp183
(lp184
g117
as(I128
I128
I192
tp185
(lp186
g137
as(I70
I130
I180
tp187
(lp188
g62
as(I0
I128
I192
tp189
(lp190
g45
as(I255
I255
I255
tp191
(lp192
g100
as(I192
I128
I128
tp193
(lp194
g32
as(I119
I11
I32
tp195
(lp196
g53
as(I128
I0
I192
tp197
(lp198
g82
as(I192
I0
I192
tp199
(lp200
g36
as(I192
I192
I128
tp201
(lp202
g28
as(I192
I64
I128
tp203
(lp204
g108
as(I0
I64
I64
tp205
(lp206
g49
as(I128
I0
I0
tp207
(lp208
g153
as(I128
I128
I0
tp209
(lp210
g9
as(I128
I128
I64
tp211
(lp212
g95
as(I0
I0
I142
tp213
(lp214
g74
as(I128
I64
I128
tp215
(lp216
g90
as(I0
I0
I64
tp217
(lp218
g23
as(I64
I64
I128
tp219
(lp220
g19
as(I192
I128
I192
tp221
(lp222
g157
as(I0
I0
I0
tp223
(lp224
g41
asa.